target datalayout = "e-m:e-p270:32:32-p271:32:32-p272:64:64-i64:64-i128:128-f80:128-n8:16:32:64-S128"
target triple = "x86_64-unknown-linux-gnu"

%"class.hermes::vm::PinnedHermesValue" = type { %"class.hermes::vm::HermesValue" }
%"class.hermes::vm::HermesValue" = type { i64 }
%"class.hermes::vm::CallResult" = type { i32, %"class.hermes::vm::HermesValue" }
%"class.hermes::vm::TwineChar16" = type { %"union.hermes::vm::TwineChar16::Node", i32, %"union.hermes::vm::TwineChar16::Node", i32, i64, i64 }
%"union.hermes::vm::TwineChar16::Node" = type { ptr }
%"class.std::reverse_iterator" = type { ptr }
%"class.llvh::StringRef" = type { ptr, i64 }
%"class.hermes::vm::NativeArgs" = type { %"class.std::reverse_iterator", i32, ptr }

@.str.12 = private unnamed_addr constant [42 x i8] c"Argument to clearTimeout must be a number\00", align 1

; Function Attrs: mustprogress nounwind uwtable
define linkonce_odr hidden void @_ZNSt16reverse_iteratorIPKN6hermes2vm17PinnedHermesValueEEC2ES4_(ptr noundef nonnull align 8 dereferenceable(8) %this, ptr noundef %__x) unnamed_addr #0 comdat align 2 {
entry:
  %this.addr = alloca ptr, align 8
  %__x.addr = alloca ptr, align 8
  store ptr %this, ptr %this.addr, align 8
  store ptr %__x, ptr %__x.addr, align 8
  %this1 = load ptr, ptr %this.addr, align 8
  %current = getelementptr inbounds %"class.std::reverse_iterator", ptr %this1, i32 0, i32 0
  %0 = load ptr, ptr %__x.addr, align 8
  store ptr %0, ptr %current, align 8
  ret void
}

; Function Attrs: mustprogress nounwind uwtable
define linkonce_odr hidden noundef double @_ZN4llvh12BitsToDoubleEm(i64 noundef %Bits) #0 comdat {
entry:
  %Bits.addr = alloca i64, align 8
  %D = alloca double, align 8
  store i64 %Bits, ptr %Bits.addr, align 8
  call void @llvm.memcpy.p0.p0.i64(ptr align 8 %D, ptr align 8 %Bits.addr, i64 8, i1 false)
  %0 = load double, ptr %D, align 8
  ret double %0
}

; Function Attrs: mustprogress nounwind uwtable
define linkonce_odr hidden noundef ptr @_ZNK4llvh9StringRef5beginEv(ptr noundef nonnull align 8 dereferenceable(16) %this) #0 comdat align 2 {
entry:
  %this.addr = alloca ptr, align 8
  store ptr %this, ptr %this.addr, align 8
  %this1 = load ptr, ptr %this.addr, align 8
  %Data = getelementptr inbounds %"class.llvh::StringRef", ptr %this1, i32 0, i32 0
  %0 = load ptr, ptr %Data, align 8
  ret ptr %0
}

; Function Attrs: mustprogress nounwind uwtable
define linkonce_odr hidden noundef nonnull align 8 dereferenceable(8) ptr @_ZNKSt16reverse_iteratorIPKN6hermes2vm17PinnedHermesValueEEdeEv(ptr noundef nonnull align 8 dereferenceable(8) %this) #0 comdat align 2 {
entry:
  %this.addr = alloca ptr, align 8
  %__tmp = alloca ptr, align 8
  store ptr %this, ptr %this.addr, align 8
  %this1 = load ptr, ptr %this.addr, align 8
  %current = getelementptr inbounds %"class.std::reverse_iterator", ptr %this1, i32 0, i32 0
  %0 = load ptr, ptr %current, align 8
  store ptr %0, ptr %__tmp, align 8
  %1 = load ptr, ptr %__tmp, align 8
  %incdec.ptr = getelementptr inbounds %"class.hermes::vm::PinnedHermesValue", ptr %1, i32 -1
  store ptr %incdec.ptr, ptr %__tmp, align 8
  ret ptr %incdec.ptr
}

; Function Attrs: mustprogress nounwind uwtable
define linkonce_odr hidden void @_ZNKSt16reverse_iteratorIPKN6hermes2vm17PinnedHermesValueEEplEl(ptr noalias sret(%"class.std::reverse_iterator") align 8 %agg.result, ptr noundef nonnull align 8 dereferenceable(8) %this, i64 noundef %__n) #0 comdat align 2 {
entry:
  %result.ptr = alloca ptr, align 8
  %this.addr = alloca ptr, align 8
  %__n.addr = alloca i64, align 8
  store ptr %agg.result, ptr %result.ptr, align 8
  store ptr %this, ptr %this.addr, align 8
  store i64 %__n, ptr %__n.addr, align 8
  %this1 = load ptr, ptr %this.addr, align 8
  %current = getelementptr inbounds %"class.std::reverse_iterator", ptr %this1, i32 0, i32 0
  %0 = load ptr, ptr %current, align 8
  %1 = load i64, ptr %__n.addr, align 8
  %idx.neg = sub i64 0, %1
  %add.ptr = getelementptr inbounds %"class.hermes::vm::PinnedHermesValue", ptr %0, i64 %idx.neg
  call void @_ZNSt16reverse_iteratorIPKN6hermes2vm17PinnedHermesValueEEC2ES4_(ptr noundef nonnull align 8 dereferenceable(8) %agg.result, ptr noundef %add.ptr) #11
  ret void
}

; Function Attrs: mustprogress nounwind uwtable
define linkonce_odr hidden void @_ZNSt16reverse_iteratorIPKN6hermes2vm17PinnedHermesValueEEC2ERKS5_(ptr noundef nonnull align 8 dereferenceable(8) %this, ptr noundef nonnull align 8 dereferenceable(8) %__x) unnamed_addr #0 comdat align 2 {
entry:
  %this.addr = alloca ptr, align 8
  %__x.addr = alloca ptr, align 8
  store ptr %this, ptr %this.addr, align 8
  store ptr %__x, ptr %__x.addr, align 8
  %this1 = load ptr, ptr %this.addr, align 8
  %current = getelementptr inbounds %"class.std::reverse_iterator", ptr %this1, i32 0, i32 0
  %0 = load ptr, ptr %__x.addr, align 8
  %current2 = getelementptr inbounds %"class.std::reverse_iterator", ptr %0, i32 0, i32 0
  %1 = load ptr, ptr %current2, align 8
  store ptr %1, ptr %current, align 8
  ret void
}

; Function Attrs: mustprogress nounwind uwtable
define linkonce_odr hidden void @_ZN6hermes2vm11HermesValueC2EmNS1_4ETagE(ptr noundef nonnull align 8 dereferenceable(8) %this, i64 noundef %val, i64 noundef %etag) unnamed_addr #0 comdat align 2 {
entry:
  %this.addr = alloca ptr, align 8
  %val.addr = alloca i64, align 8
  %etag.addr = alloca i64, align 8
  store ptr %this, ptr %this.addr, align 8
  store i64 %val, ptr %val.addr, align 8
  store i64 %etag, ptr %etag.addr, align 8
  %this1 = load ptr, ptr %this.addr, align 8
  %raw_ = getelementptr inbounds %"class.hermes::vm::HermesValue", ptr %this1, i32 0, i32 0
  %0 = load i64, ptr %val.addr, align 8
  %1 = load i64, ptr %etag.addr, align 8
  %shl = shl i64 %1, 47
  %or = or i64 %0, %shl
  store i64 %or, ptr %raw_, align 8
  ret void
}

; Function Attrs: mustprogress nounwind uwtable
define linkonce_odr hidden noundef double @_ZNK6hermes2vm11HermesValue9getDoubleEv(ptr noundef nonnull align 8 dereferenceable(8) %this) #0 comdat align 2 {
entry:
  %this.addr = alloca ptr, align 8
  store ptr %this, ptr %this.addr, align 8
  %this1 = load ptr, ptr %this.addr, align 8
  %raw_ = getelementptr inbounds %"class.hermes::vm::HermesValue", ptr %this1, i32 0, i32 0
  %0 = load i64, ptr %raw_, align 8
  %call = call noundef double @_ZN4llvh12BitsToDoubleEm(i64 noundef %0)
  ret double %call
}

; Function Attrs: mustprogress nounwind uwtable
define linkonce_odr hidden void @_ZN6hermes2vm11TwineChar16C2EN4llvh9StringRefE(ptr noundef nonnull align 8 dereferenceable(48) %this, ptr %str.coerce0, i64 %str.coerce1) unnamed_addr #0 comdat align 2 {
entry:
  %this.addr.i6 = alloca ptr, align 8
  %this.addr.i = alloca ptr, align 8
  %str = alloca %"class.llvh::StringRef", align 8
  %this.addr = alloca ptr, align 8
  %0 = getelementptr inbounds { ptr, i64 }, ptr %str, i32 0, i32 0
  store ptr %str.coerce0, ptr %0, align 8
  %1 = getelementptr inbounds { ptr, i64 }, ptr %str, i32 0, i32 1
  store i64 %str.coerce1, ptr %1, align 8
  store ptr %this, ptr %this.addr, align 8
  %this1 = load ptr, ptr %this.addr, align 8
  %rightKind_ = getelementptr inbounds %"class.hermes::vm::TwineChar16", ptr %this1, i32 0, i32 3
  store i32 1, ptr %rightKind_, align 8
  %leftSize_ = getelementptr inbounds %"class.hermes::vm::TwineChar16", ptr %this1, i32 0, i32 4
  store ptr %str, ptr %this.addr.i6, align 8
  %this1.i7 = load ptr, ptr %this.addr.i6, align 8
  %Length.i8 = getelementptr inbounds %"class.llvh::StringRef", ptr %this1.i7, i32 0, i32 1
  %2 = load i64, ptr %Length.i8, align 8
  store i64 %2, ptr %leftSize_, align 8
  %rightSize_ = getelementptr inbounds %"class.hermes::vm::TwineChar16", ptr %this1, i32 0, i32 5
  store i64 0, ptr %rightSize_, align 8
  store ptr %str, ptr %this.addr.i, align 8
  %this1.i = load ptr, ptr %this.addr.i, align 8
  %Length.i = getelementptr inbounds %"class.llvh::StringRef", ptr %this1.i, i32 0, i32 1
  %3 = load i64, ptr %Length.i, align 8
  %cmp = icmp eq i64 %3, 0
  br i1 %cmp, label %if.then, label %if.else

if.then:                                          ; preds = %entry
  %leftKind_ = getelementptr inbounds %"class.hermes::vm::TwineChar16", ptr %this1, i32 0, i32 1
  store i32 1, ptr %leftKind_, align 8
  br label %if.end

if.else:                                          ; preds = %entry
  %call3 = call noundef ptr @_ZNK4llvh9StringRef5beginEv(ptr noundef nonnull align 8 dereferenceable(16) %str)
  %leftChild_4 = getelementptr inbounds %"class.hermes::vm::TwineChar16", ptr %this1, i32 0, i32 0
  store ptr %call3, ptr %leftChild_4, align 8
  %leftKind_5 = getelementptr inbounds %"class.hermes::vm::TwineChar16", ptr %this1, i32 0, i32 1
  store i32 3, ptr %leftKind_5, align 8
  br label %if.end

if.end:                                           ; preds = %if.else, %if.then
  ret void
}

; Function Attrs: mustprogress nounwind uwtable
define linkonce_odr hidden noundef zeroext i1 @_ZNK6hermes2vm11HermesValue8isDoubleEv(ptr noundef nonnull align 8 dereferenceable(8) %this) #0 comdat align 2 {
entry:
  %this.addr = alloca ptr, align 8
  store ptr %this, ptr %this.addr, align 8
  %this1 = load ptr, ptr %this.addr, align 8
  %raw_ = getelementptr inbounds %"class.hermes::vm::HermesValue", ptr %this1, i32 0, i32 0
  %0 = load i64, ptr %raw_, align 8
  %cmp = icmp ult i64 %0, -1970324836974592
  ret i1 %cmp
}

; Function Attrs: mustprogress nounwind uwtable
define linkonce_odr hidden noundef nonnull align 8 dereferenceable(8) ptr @_ZNKSt16reverse_iteratorIPKN6hermes2vm17PinnedHermesValueEEixEl(ptr noundef nonnull align 8 dereferenceable(8) %this, i64 noundef %__n) #0 comdat align 2 {
entry:
  %this.addr = alloca ptr, align 8
  %__n.addr = alloca i64, align 8
  %ref.tmp = alloca %"class.std::reverse_iterator", align 8
  store ptr %this, ptr %this.addr, align 8
  store i64 %__n, ptr %__n.addr, align 8
  %this1 = load ptr, ptr %this.addr, align 8
  %0 = load i64, ptr %__n.addr, align 8
  call void @_ZNKSt16reverse_iteratorIPKN6hermes2vm17PinnedHermesValueEEplEl(ptr sret(%"class.std::reverse_iterator") align 8 %ref.tmp, ptr noundef nonnull align 8 dereferenceable(8) %this1, i64 noundef %0)
  %call = call noundef nonnull align 8 dereferenceable(8) ptr @_ZNKSt16reverse_iteratorIPKN6hermes2vm17PinnedHermesValueEEdeEv(ptr noundef nonnull align 8 dereferenceable(8) %ref.tmp)
  ret ptr %call
}

; Function Attrs: mustprogress nounwind uwtable
define linkonce_odr hidden void @_ZNK6hermes2vm10NativeArgs5beginEv(ptr noalias sret(%"class.std::reverse_iterator") align 8 %agg.result, ptr noundef nonnull align 8 dereferenceable(24) %this) #0 comdat align 2 {
entry:
  %result.ptr = alloca ptr, align 8
  %this.addr = alloca ptr, align 8
  store ptr %agg.result, ptr %result.ptr, align 8
  store ptr %this, ptr %this.addr, align 8
  %this1 = load ptr, ptr %this.addr, align 8
  %firstArg_ = getelementptr inbounds %"class.hermes::vm::NativeArgs", ptr %this1, i32 0, i32 0
  call void @_ZNSt16reverse_iteratorIPKN6hermes2vm17PinnedHermesValueEEC2ERKS5_(ptr noundef nonnull align 8 dereferenceable(8) %agg.result, ptr noundef nonnull align 8 dereferenceable(8) %firstArg_) #11
  ret void
}

; Function Attrs: mustprogress nounwind uwtable
define linkonce_odr hidden void @_ZN6hermes2vm10CallResultINS0_11HermesValueELNS0_6detail20CallResultSpecializeE2EEC2ES2_(ptr noundef nonnull align 8 dereferenceable(16) %this, i64 %value.coerce) unnamed_addr #0 comdat align 2 {
entry:
  %value = alloca %"class.hermes::vm::HermesValue", align 8
  %this.addr = alloca ptr, align 8
  %coerce.dive = getelementptr inbounds %"class.hermes::vm::HermesValue", ptr %value, i32 0, i32 0
  store i64 %value.coerce, ptr %coerce.dive, align 8
  store ptr %this, ptr %this.addr, align 8
  %this1 = load ptr, ptr %this.addr, align 8
  %status_ = getelementptr inbounds %"class.hermes::vm::CallResult", ptr %this1, i32 0, i32 0
  store i32 1, ptr %status_, align 8
  %storage_2 = getelementptr inbounds %"class.hermes::vm::CallResult", ptr %this1, i32 0, i32 1
  call void @llvm.memcpy.p0.p0.i64(ptr align 8 %storage_2, ptr align 8 %value, i64 8, i1 false)
  ret void
}

; Function Attrs: mustprogress nounwind uwtable
define linkonce_odr hidden i64 @_ZN6hermes2vm11HermesValue20encodeUndefinedValueEv() #0 comdat align 2 {
entry:
  %retval = alloca %"class.hermes::vm::HermesValue", align 8
  call void @_ZN6hermes2vm11HermesValueC2EmNS1_4ETagE(ptr noundef nonnull align 8 dereferenceable(8) %retval, i64 noundef 0, i64 noundef -12)
  %coerce.dive = getelementptr inbounds %"class.hermes::vm::HermesValue", ptr %retval, i32 0, i32 0
  %0 = load i64, ptr %coerce.dive, align 8
  ret i64 %0
}

; Function Attrs: mustprogress nounwind uwtable
define linkonce_odr hidden noundef i32 @_ZNK6hermes2vm11HermesValue11getNumberAsIjEENSt9enable_ifIXsr3std11is_integralIT_EE5valueES4_E4typeEv(ptr noundef nonnull align 8 dereferenceable(8) %this) #0 comdat align 2 {
entry:
  %this.addr = alloca ptr, align 8
  %num = alloca double, align 8
  store ptr %this, ptr %this.addr, align 8
  %this1 = load ptr, ptr %this.addr, align 8
  %call = call noundef double @_ZNK6hermes2vm11HermesValue9getDoubleEv(ptr noundef nonnull align 8 dereferenceable(8) %this1)
  store double %call, ptr %num, align 8
  %0 = load double, ptr %num, align 8
  %conv = fptoui double %0 to i32
  ret i32 %conv
}

; Function Attrs: mustprogress nounwind uwtable
define linkonce_odr hidden void @_ZN6hermes2vm10CallResultINS0_11HermesValueELNS0_6detail20CallResultSpecializeE2EEC2ENS0_15ExecutionStatusE(ptr noundef nonnull align 8 dereferenceable(16) %this, i32 noundef %status) unnamed_addr #0 comdat align 2 {
entry:
  %this.addr = alloca ptr, align 8
  %status.addr = alloca i32, align 4
  store ptr %this, ptr %this.addr, align 8
  store i32 %status, ptr %status.addr, align 4
  %this1 = load ptr, ptr %this.addr, align 8
  %status_ = getelementptr inbounds %"class.hermes::vm::CallResult", ptr %this1, i32 0, i32 0
  %0 = load i32, ptr %status.addr, align 4
  store i32 %0, ptr %status_, align 8
  ret void
}

; Function Attrs: mustprogress nounwind uwtable
define linkonce_odr hidden void @_ZN6hermes2vm11TwineChar16C2EPKc(ptr noundef nonnull align 8 dereferenceable(48) %this, ptr noundef %str) unnamed_addr #0 comdat align 2 {
entry:
  %this.addr.i = alloca ptr, align 8
  %Str.addr.i = alloca ptr, align 8
  %this.addr = alloca ptr, align 8
  %str.addr = alloca ptr, align 8
  %agg.tmp = alloca %"class.llvh::StringRef", align 8
  store ptr %this, ptr %this.addr, align 8
  store ptr %str, ptr %str.addr, align 8
  %this1 = load ptr, ptr %this.addr, align 8
  %0 = load ptr, ptr %str.addr, align 8
  store ptr %agg.tmp, ptr %this.addr.i, align 8
  store ptr %0, ptr %Str.addr.i, align 8
  %this1.i = load ptr, ptr %this.addr.i, align 8
  %1 = load ptr, ptr %Str.addr.i, align 8
  store ptr %1, ptr %this1.i, align 8
  %Length.i = getelementptr inbounds %"class.llvh::StringRef", ptr %this1.i, i32 0, i32 1
  %2 = load ptr, ptr %Str.addr.i, align 8
  %tobool.i = icmp ne ptr %2, null
  br i1 %tobool.i, label %cond.true.i, label %cond.false.i

cond.true.i:                                      ; preds = %entry
  %3 = load ptr, ptr %Str.addr.i, align 8
  %call.i = call i64 @strlen(ptr noundef %3) #15
  br label %_ZN4llvh9StringRefC2EPKc.exit

cond.false.i:                                     ; preds = %entry
  br label %_ZN4llvh9StringRefC2EPKc.exit

_ZN4llvh9StringRefC2EPKc.exit:                    ; preds = %cond.false.i, %cond.true.i
  %cond.i = phi i64 [ %call.i, %cond.true.i ], [ 0, %cond.false.i ]
  store i64 %cond.i, ptr %Length.i, align 8
  %4 = getelementptr inbounds { ptr, i64 }, ptr %agg.tmp, i32 0, i32 0
  %5 = load ptr, ptr %4, align 8
  %6 = getelementptr inbounds { ptr, i64 }, ptr %agg.tmp, i32 0, i32 1
  %7 = load i64, ptr %6, align 8
  call void @_ZN6hermes2vm11TwineChar16C2EN4llvh9StringRefE(ptr noundef nonnull align 8 dereferenceable(48) %this1, ptr %5, i64 %7)
  ret void
}

; Function Attrs: mustprogress nounwind uwtable
define linkonce_odr hidden noundef zeroext i1 @_ZNK6hermes2vm11HermesValue8isNumberEv(ptr noundef nonnull align 8 dereferenceable(8) %this) #0 comdat align 2 {
entry:
  %this.addr = alloca ptr, align 8
  store ptr %this, ptr %this.addr, align 8
  %this1 = load ptr, ptr %this.addr, align 8
  %call = call noundef zeroext i1 @_ZNK6hermes2vm11HermesValue8isDoubleEv(ptr noundef nonnull align 8 dereferenceable(8) %this1)
  ret i1 %call
}

; Function Attrs: mustprogress nounwind uwtable
define linkonce_odr hidden i64 @_ZNK6hermes2vm10NativeArgs6getArgEj(ptr noundef nonnull align 8 dereferenceable(24) %this, i32 noundef %index) #0 comdat align 2 {
entry:
  %retval = alloca %"class.hermes::vm::HermesValue", align 8
  %this.addr = alloca ptr, align 8
  %index.addr = alloca i32, align 4
  %ref.tmp = alloca %"class.std::reverse_iterator", align 8
  store ptr %this, ptr %this.addr, align 8
  store i32 %index, ptr %index.addr, align 4
  %this1 = load ptr, ptr %this.addr, align 8
  %0 = load i32, ptr %index.addr, align 4
  %argCount_ = getelementptr inbounds %"class.hermes::vm::NativeArgs", ptr %this1, i32 0, i32 1
  %1 = load i32, ptr %argCount_, align 8
  %cmp = icmp ult i32 %0, %1
  br i1 %cmp, label %cond.true, label %cond.false

cond.true:                                        ; preds = %entry
  call void @_ZNK6hermes2vm10NativeArgs5beginEv(ptr sret(%"class.std::reverse_iterator") align 8 %ref.tmp, ptr noundef nonnull align 8 dereferenceable(24) %this1)
  %2 = load i32, ptr %index.addr, align 4
  %conv = zext i32 %2 to i64
  %call = call noundef nonnull align 8 dereferenceable(8) ptr @_ZNKSt16reverse_iteratorIPKN6hermes2vm17PinnedHermesValueEEixEl(ptr noundef nonnull align 8 dereferenceable(8) %ref.tmp, i64 noundef %conv)
  call void @llvm.memcpy.p0.p0.i64(ptr align 8 %retval, ptr align 8 %call, i64 8, i1 false)
  br label %cond.end

cond.false:                                       ; preds = %entry
  %call2 = call i64 @_ZN6hermes2vm11HermesValue20encodeUndefinedValueEv()
  %coerce.dive = getelementptr inbounds %"class.hermes::vm::HermesValue", ptr %retval, i32 0, i32 0
  store i64 %call2, ptr %coerce.dive, align 8
  br label %cond.end

cond.end:                                         ; preds = %cond.false, %cond.true
  %coerce.dive3 = getelementptr inbounds %"class.hermes::vm::HermesValue", ptr %retval, i32 0, i32 0
  %3 = load i64, ptr %coerce.dive3, align 8
  ret i64 %3
}

; Function Attrs: mustprogress nounwind uwtable
define internal { i32, i64 } @_ZN6hermesL12clearTimeoutEPvRNS_2vm7RuntimeENS1_10NativeArgsE(ptr noundef %ctx, ptr noundef nonnull align 8 dereferenceable(9832) %runtime, ptr noundef %args) #0 {
entry:
  %retval = alloca %"class.hermes::vm::CallResult", align 8
  %ctx.addr = alloca ptr, align 8
  %runtime.addr = alloca ptr, align 8
  %args.indirect_addr = alloca ptr, align 8
  %consoleHost = alloca ptr, align 8
  %ref.tmp = alloca %"class.hermes::vm::HermesValue", align 8
  %ref.tmp2 = alloca %"class.hermes::vm::TwineChar16", align 8
  %ref.tmp4 = alloca %"class.hermes::vm::HermesValue", align 8
  %agg.tmp = alloca %"class.hermes::vm::HermesValue", align 8
  store ptr %ctx, ptr %ctx.addr, align 8
  store ptr %runtime, ptr %runtime.addr, align 8
  store ptr %args, ptr %args.indirect_addr, align 8
  %0 = load ptr, ptr %ctx.addr, align 8
  store ptr %0, ptr %consoleHost, align 8
  %call = call i64 @_ZNK6hermes2vm10NativeArgs6getArgEj(ptr noundef nonnull align 8 dereferenceable(24) %args, i32 noundef 0)
  %coerce.dive = getelementptr inbounds %"class.hermes::vm::HermesValue", ptr %ref.tmp, i32 0, i32 0
  store i64 %call, ptr %coerce.dive, align 8
  %call1 = call noundef zeroext i1 @_ZNK6hermes2vm11HermesValue8isNumberEv(ptr noundef nonnull align 8 dereferenceable(8) %ref.tmp)
  %lnot = xor i1 %call1, true
  br i1 %lnot, label %if.then, label %if.end

if.then:                                          ; preds = %entry
  %1 = load ptr, ptr %runtime.addr, align 8
  call void @_ZN6hermes2vm11TwineChar16C2EPKc(ptr noundef nonnull align 8 dereferenceable(48) %ref.tmp2, ptr noundef @.str.12)
  %call3 = call noundef i32 @_ZN6hermes2vm7Runtime14raiseTypeErrorERKNS0_11TwineChar16E(ptr noundef nonnull align 8 dereferenceable(9832) %1, ptr noundef nonnull align 8 dereferenceable(48) %ref.tmp2)
  call void @_ZN6hermes2vm10CallResultINS0_11HermesValueELNS0_6detail20CallResultSpecializeE2EEC2ENS0_15ExecutionStatusE(ptr noundef nonnull align 8 dereferenceable(16) %retval, i32 noundef %call3)
  br label %return

if.end:                                           ; preds = %entry
  %2 = load ptr, ptr %consoleHost, align 8
  %call5 = call i64 @_ZNK6hermes2vm10NativeArgs6getArgEj(ptr noundef nonnull align 8 dereferenceable(24) %args, i32 noundef 0)
  %coerce.dive6 = getelementptr inbounds %"class.hermes::vm::HermesValue", ptr %ref.tmp4, i32 0, i32 0
  store i64 %call5, ptr %coerce.dive6, align 8
  %call7 = call noundef i32 @_ZNK6hermes2vm11HermesValue11getNumberAsIjEENSt9enable_ifIXsr3std11is_integralIT_EE5valueES4_E4typeEv(ptr noundef nonnull align 8 dereferenceable(8) %ref.tmp4)
  call void @_ZN6hermes18ConsoleHostContext9clearTaskEj(ptr noundef nonnull align 8 dereferenceable(84) %2, i32 noundef %call7)
  %call8 = call i64 @_ZN6hermes2vm11HermesValue20encodeUndefinedValueEv()
  %coerce.dive9 = getelementptr inbounds %"class.hermes::vm::HermesValue", ptr %agg.tmp, i32 0, i32 0
  store i64 %call8, ptr %coerce.dive9, align 8
  %coerce.dive10 = getelementptr inbounds %"class.hermes::vm::HermesValue", ptr %agg.tmp, i32 0, i32 0
  %3 = load i64, ptr %coerce.dive10, align 8
  call void @_ZN6hermes2vm10CallResultINS0_11HermesValueELNS0_6detail20CallResultSpecializeE2EEC2ES2_(ptr noundef nonnull align 8 dereferenceable(16) %retval, i64 %3)
  br label %return

return:                                           ; preds = %if.end, %if.then
  %4 = load { i32, i64 }, ptr %retval, align 8
  ret { i32, i64 } %4
}