; Function Attrs: mustprogress nounwind uwtable
define internal { i32, i64 } @_ZN6hermesL12clearTimeoutEPvRNS_2vm7RuntimeENS1_10NativeArgsE(ptr noundef %ctx, ptr noundef nonnull align 8 dereferenceable(9832) %runtime, ptr nocapture noundef readonly %args) #0 {
entry:
  %ref.tmp2 = alloca %"class.hermes::vm::TwineChar16", align 8
  %argCount_.i = getelementptr inbounds i8, ptr %args, i64 8
  %0 = load i32, ptr %argCount_.i, align 8
  %cmp.i.not = icmp eq i32 %0, 0
  br i1 %cmp.i.not, label %if.then, label %_ZNK6hermes2vm10NativeArgs6getArgEj.exit

_ZNK6hermes2vm10NativeArgs6getArgEj.exit:         ; preds = %entry
  %1 = load ptr, ptr %args, align 8, !noalias !4
  %incdec.ptr.i.i.i = getelementptr inbounds i8, ptr %1, i64 -8
  %retval.sroa.0.0.copyload.i = load i64, ptr %incdec.ptr.i.i.i, align 8
  %cmp.i.i = icmp ult i64 %retval.sroa.0.0.copyload.i, -1970324836974592
  br i1 %cmp.i.i, label %_ZNK6hermes2vm10NativeArgs6getArgEj.exit8, label %if.then

if.then:                                          ; preds = %entry, %_ZNK6hermes2vm10NativeArgs6getArgEj.exit
  %rightKind_.i3.i = getelementptr inbounds i8, ptr %ref.tmp2, i64 24
  store i32 1, ptr %rightKind_.i3.i, align 8
  %leftSize_.i4.i = getelementptr inbounds i8, ptr %ref.tmp2, i64 32
  store i64 41, ptr %leftSize_.i4.i, align 8
  %rightSize_.i5.i = getelementptr inbounds i8, ptr %ref.tmp2, i64 40
  store i64 0, ptr %rightSize_.i5.i, align 8
  store ptr @.str.12, ptr %ref.tmp2, align 8
  %2 = getelementptr inbounds i8, ptr %ref.tmp2, i64 8
  store i32 3, ptr %2, align 8
  %call3 = call noundef i32 @_ZN6hermes2vm7Runtime14raiseTypeErrorERKNS0_11TwineChar16E(ptr noundef nonnull align 8 dereferenceable(9832) %runtime, ptr noundef nonnull align 8 dereferenceable(48) %ref.tmp2) #16
  br label %return

_ZNK6hermes2vm10NativeArgs6getArgEj.exit8:        ; preds = %_ZNK6hermes2vm10NativeArgs6getArgEj.exit
  %3 = bitcast i64 %retval.sroa.0.0.copyload.i to double
  %conv.i = fptoui double %3 to i32
  tail call void @_ZN6hermes18ConsoleHostContext9clearTaskEj(ptr noundef nonnull align 8 dereferenceable(84) %ctx, i32 noundef %conv.i)
  br label %return

return:                                           ; preds = %_ZNK6hermes2vm10NativeArgs6getArgEj.exit8, %if.then
  %retval.sroa.0.0 = phi i32 [ 1, %_ZNK6hermes2vm10NativeArgs6getArgEj.exit8 ], [ %call3, %if.then ]
  %.fca.0.insert = insertvalue { i32, i64 } poison, i32 %retval.sroa.0.0, 0
  %.fca.1.insert = insertvalue { i32, i64 } %.fca.0.insert, i64 -1688849860263936, 1
  ret { i32, i64 } %.fca.1.insert
}